; ModuleID = 'source-C-CXX/44/2839.c'
source_filename = "source-C-CXX/44/2839.c"
target datalayout = "e-m:e-p270:32:32-p271:32:32-p272:64:64-i64:64-f80:128-n8:16:32:64-S128"
target triple = "x86_64-pc-linux-gnu"

@.str = private unnamed_addr constant [5 x i8] c"%s%s\00", align 1
@.str.1 = private unnamed_addr constant [3 x i8] c"%d\00", align 1

; Function Attrs: nofree nounwind sspstrong uwtable
define dso_local i32 @main() local_unnamed_addr #0 {
  %1 = alloca [10000 x i8], align 16
  %2 = alloca [10000 x i8], align 16
  %3 = getelementptr inbounds [10000 x i8], [10000 x i8]* %1, i64 0, i64 0
  call void @llvm.lifetime.start.p0i8(i64 10000, i8* nonnull %3) #4
  %4 = getelementptr inbounds [10000 x i8], [10000 x i8]* %2, i64 0, i64 0
  call void @llvm.lifetime.start.p0i8(i64 10000, i8* nonnull %4) #4
  %5 = call i32 (i8*, ...) @__isoc99_scanf(i8* getelementptr inbounds ([5 x i8], [5 x i8]* @.str, i64 0, i64 0), i8* nonnull %3, i8* nonnull %4)
  %6 = call i64 @strlen(i8* noundef nonnull %3) #5
  %7 = trunc i64 %6 to i32
  %8 = call i64 @strlen(i8* noundef nonnull %4) #5
  %9 = trunc i64 %8 to i32
  %10 = load i8, i8* %3, align 16
  %11 = sub nsw i32 %9, %7
  %12 = icmp sgt i32 %9, 0
  br i1 %12, label %13, label %63

13:                                               ; preds = %0
  %14 = icmp sgt i32 %7, 0
  br i1 %14, label %17, label %15

15:                                               ; preds = %13
  %16 = and i64 %8, 4294967295
  br label %25

17:                                               ; preds = %13
  %18 = shl i64 %6, 32
  %19 = ashr exact i64 %18, 32
  %20 = sext i32 %11 to i64
  %21 = and i64 %8, 4294967295
  %22 = getelementptr inbounds [10000 x i8], [10000 x i8]* %1, i64 0, i64 0
  %23 = load i8, i8* %22, align 16
  %24 = icmp eq i8 %23, %10
  br label %33

25:                                               ; preds = %15, %30
  %26 = phi i64 [ 0, %15 ], [ %31, %30 ]
  %27 = getelementptr inbounds [10000 x i8], [10000 x i8]* %2, i64 0, i64 %26
  %28 = load i8, i8* %27, align 1, !tbaa !5
  %29 = icmp eq i8 %10, %28
  br i1 %29, label %56, label %30

30:                                               ; preds = %25
  %31 = add nuw nsw i64 %26, 1
  %32 = icmp eq i64 %31, %16
  br i1 %32, label %63, label %25, !llvm.loop !8

33:                                               ; preds = %17, %60
  %34 = phi i64 [ 0, %17 ], [ %61, %60 ]
  %35 = getelementptr inbounds [10000 x i8], [10000 x i8]* %2, i64 0, i64 %34
  %36 = load i8, i8* %35, align 1, !tbaa !5
  %37 = icmp eq i8 %10, %36
  br i1 %37, label %38, label %60

38:                                               ; preds = %33
  %39 = icmp slt i64 %34, %20
  br i1 %39, label %40, label %56

40:                                               ; preds = %38
  br i1 %24, label %41, label %60

41:                                               ; preds = %40, %50
  %42 = phi i64 [ %45, %50 ], [ %34, %40 ]
  %43 = phi i64 [ %44, %50 ], [ 0, %40 ]
  %44 = add nuw nsw i64 %43, 1
  %45 = add nuw nsw i64 %42, 1
  %46 = icmp slt i64 %44, %19
  %47 = trunc i64 %45 to i32
  %48 = icmp sgt i32 %11, %47
  %49 = select i1 %46, i1 %48, i1 false
  br i1 %49, label %50, label %56, !llvm.loop !10

50:                                               ; preds = %41
  %51 = getelementptr inbounds [10000 x i8], [10000 x i8]* %2, i64 0, i64 %45
  %52 = load i8, i8* %51, align 1, !tbaa !5
  %53 = getelementptr inbounds [10000 x i8], [10000 x i8]* %1, i64 0, i64 %44
  %54 = load i8, i8* %53, align 1, !tbaa !5
  %55 = icmp eq i8 %54, %52
  br i1 %55, label %41, label %60

56:                                               ; preds = %25, %38, %41
  %57 = phi i64 [ %34, %41 ], [ %34, %38 ], [ %26, %25 ]
  %58 = trunc i64 %57 to i32
  %59 = call i32 (i8*, ...) @printf(i8* nonnull dereferenceable(1) getelementptr inbounds ([3 x i8], [3 x i8]* @.str.1, i64 0, i64 0), i32 %58)
  br label %63

60:                                               ; preds = %50, %40, %33
  %61 = add nuw nsw i64 %34, 1
  %62 = icmp eq i64 %61, %21
  br i1 %62, label %63, label %33, !llvm.loop !8

63:                                               ; preds = %30, %60, %0, %56
  call void @llvm.lifetime.end.p0i8(i64 10000, i8* nonnull %4) #4
  call void @llvm.lifetime.end.p0i8(i64 10000, i8* nonnull %3) #4
  ret i32 0
}

; Function Attrs: argmemonly mustprogress nofree nosync nounwind willreturn
declare void @llvm.lifetime.start.p0i8(i64 immarg, i8* nocapture) #1

; Function Attrs: nofree nounwind
declare noundef i32 @__isoc99_scanf(i8* nocapture noundef readonly, ...) local_unnamed_addr #2

; Function Attrs: argmemonly mustprogress nofree nounwind readonly willreturn
declare i64 @strlen(i8* nocapture) local_unnamed_addr #3

; Function Attrs: nofree nounwind
declare noundef i32 @printf(i8* nocapture noundef readonly, ...) local_unnamed_addr #2

; Function Attrs: argmemonly mustprogress nofree nosync nounwind willreturn
declare void @llvm.lifetime.end.p0i8(i64 immarg, i8* nocapture) #1


!llvm.module.flags = !{!0, !1, !2, !3}
!llvm.ident = !{!4}

!0 = !{i32 1, !"wchar_size", i32 4}
!1 = !{i32 7, !"PIC Level", i32 2}
!2 = !{i32 7, !"PIE Level", i32 2}
!3 = !{i32 7, !"uwtable", i32 1}
!4 = !{!"clang version 13.0.0"}
!5 = !{!6, !6, i64 0}
!6 = !{!"omnipotent char", !7, i64 0}
!7 = !{!"Simple C/C++ TBAA"}
!8 = distinct !{!8, !9}
!9 = !{!"llvm.loop.mustprogress"}
!10 = distinct !{!10, !9}
